Certificate:
    Data:
        Version: 3 (0x2)
        Serial Number: 3 (0x3)
        Signature Algorithm: sha256WithRSAEncryption
        Issuer: O=Yugabyte, CN=Root CA for YugabyteDB
        Validity
            Not Before: Oct 22 21:39:11 2024 GMT
            Not After : Oct 22 21:39:11 2026 GMT
        Subject: O=Yugabyte, CN=yugabyted-2
        Subject Public Key Info:
            Public Key Algorithm: rsaEncryption
                RSA Public-Key: (2048 bit)
                Modulus:
                    00:af:9a:de:b0:0f:ec:09:8b:b7:9b:68:c6:65:14:
                    26:5f:fa:37:4d:e0:be:ff:d3:fc:69:b4:b6:e4:bb:
                    6a:fb:d8:4d:a6:60:c3:84:e2:85:da:11:cc:57:b2:
                    92:c6:4d:08:58:61:1c:04:07:42:fb:d1:e4:68:8a:
                    47:f4:fe:fa:76:8a:3b:5d:6b:55:5a:ed:fe:e8:b3:
                    88:a1:59:7a:90:04:77:49:6f:32:9d:f8:c0:99:8f:
                    de:b8:b7:57:46:70:cd:56:ce:f2:6a:2d:42:92:85:
                    6c:e1:eb:94:69:c9:79:c9:c0:38:a1:d8:47:2f:cd:
                    8b:b0:0b:81:46:51:ac:82:da:71:63:83:0f:55:ee:
                    d3:e8:65:f8:82:3d:09:26:8b:0b:99:1f:4a:67:43:
                    8b:5b:d4:0b:f7:98:18:4c:f4:9c:b1:d6:9e:2a:76:
                    d4:6a:23:6d:a1:65:d3:5f:b9:95:4c:94:60:3c:8f:
                    80:d8:6e:9a:08:af:bb:fa:c8:f9:cd:22:f7:0c:ea:
                    73:74:0f:20:7d:d6:c4:b7:d2:f9:09:44:4d:14:8c:
                    14:41:66:b8:8f:a6:86:0f:c4:1f:af:38:68:4b:11:
                    2a:a5:41:fd:55:71:a8:e1:74:d7:16:22:f1:d4:2c:
                    dd:9f:21:76:f9:56:44:7f:8d:04:b9:f2:73:56:c4:
                    89:35
                Exponent: 65537 (0x10001)
        X509v3 extensions:
            X509v3 Subject Alternative Name: 
                DNS:yugabyted-2
    Signature Algorithm: sha256WithRSAEncryption
         9c:e4:13:71:7e:85:3f:41:97:da:8e:0c:65:68:13:83:da:85:
         2d:ec:9f:3c:42:c0:1e:7a:71:b3:9c:30:e0:39:0e:f5:00:df:
         a9:46:4b:55:65:0a:96:bc:2d:cb:7c:8f:ba:ac:9d:d4:92:31:
         92:16:34:80:0d:45:17:a7:eb:5a:f0:11:9a:5f:1e:b2:b8:17:
         03:c2:77:f1:9a:41:0c:de:49:0e:4d:4d:90:5a:d0:e0:e2:76:
         08:73:60:74:d8:74:82:77:64:de:0b:a0:2f:03:95:be:67:7a:
         09:1b:7c:94:5a:32:19:73:9f:dd:73:68:80:88:d1:18:39:b2:
         d5:6e:56:29:8f:73:d7:84:54:b0:8a:8f:8b:70:65:60:e5:b7:
         78:6a:ba:29:87:6a:71:78:34:f1:7c:1c:2e:69:ed:21:f8:27:
         2d:4d:e2:e8:a0:40:11:17:50:5f:7e:50:5f:a8:38:fe:8f:5a:
         23:aa:8e:28:57:4d:89:8c:2e:1e:a0:9b:5c:a3:fe:12:37:c0:
         27:81:2d:0c:51:d9:60:1c:20:f4:c2:94:fc:30:80:21:42:40:
         07:17:99:06:f8:07:0a:55:35:fa:fa:5f:fe:ae:ce:76:2b:0f:
         0d:2f:73:be:78:a2:d9:e7:fa:d1:09:b7:b3:c4:a7:4c:72:ab:
         d3:4a:64:cd
-----BEGIN CERTIFICATE-----
MIIC8jCCAdqgAwIBAgIBAzANBgkqhkiG9w0BAQsFADA0MREwDwYDVQQKDAhZdWdh
Ynl0ZTEfMB0GA1UEAwwWUm9vdCBDQSBmb3IgWXVnYWJ5dGVEQjAeFw0yNDEwMjIy
MTM5MTFaFw0yNjEwMjIyMTM5MTFaMCkxETAPBgNVBAoMCFl1Z2FieXRlMRQwEgYD
VQQDDAt5dWdhYnl0ZWQtMjCCASIwDQYJKoZIhvcNAQEBBQADggEPADCCAQoCggEB
AK+a3rAP7AmLt5toxmUUJl/6N03gvv/T/Gm0tuS7avvYTaZgw4TihdoRzFeyksZN
CFhhHAQHQvvR5GiKR/T++naKO11rVVrt/uiziKFZepAEd0lvMp34wJmP3ri3V0Zw
zVbO8motQpKFbOHrlGnJecnAOKHYRy/Ni7ALgUZRrILacWODD1Xu0+hl+II9CSaL
C5kfSmdDi1vUC/eYGEz0nLHWnip21GojbaFl01+5lUyUYDyPgNhumgivu/rI+c0i
9wzqc3QPIH3WxLfS+QlETRSMFEFmuI+mhg/EH684aEsRKqVB/VVxqOF01xYi8dQs
3Z8hdvlWRH+NBLnyc1bEiTUCAwEAAaMaMBgwFgYDVR0RBA8wDYILeXVnYWJ5dGVk
LTIwDQYJKoZIhvcNAQELBQADggEBAJzkE3F+hT9Bl9qODGVoE4PahS3snzxCwB56
cbOcMOA5DvUA36lGS1VlCpa8Lct8j7qsndSSMZIWNIANRRen61rwEZpfHrK4FwPC
d/GaQQzeSQ5NTZBa0ODidghzYHTYdIJ3ZN4LoC8Dlb5negkbfJRaMhlzn91zaICI
0Rg5stVuVimPc9eEVLCKj4twZWDlt3hquimHanF4NPF8HC5p7SH4Jy1N4uigQBEX
UF9+UF+oOP6PWiOqjihXTYmMLh6gm1yj/hI3wCeBLQxR2WAcIPTClPwwgCFCQAcX
mQb4BwpVNfr6X/6uznYrDw0vc754otnn+tEJt7PEp0xyq9NKZM0=
-----END CERTIFICATE-----
